target datalayout = "e-m:e-p270:32:32-p271:32:32-p272:64:64-i64:64-i128:128-f80:128-n8:16:32:64-S128"
target triple = "x86_64-pc-linux-gnu"

%struct.stb_vorbis = type { i32, i32, i32, i32, i32, ptr, i32, ptr, ptr, i32, i32, ptr, ptr, ptr, i32, i8, i32, %struct.ProbedPage, %struct.ProbedPage, %struct.stb_vorbis_alloc, i32, i32, i32, i32, [2 x i32], i32, i32, i32, ptr, i32, [64 x i16], ptr, i32, [64 x i16], ptr, i32, ptr, i32, [64 x %struct.Mode], i32, [16 x ptr], [16 x ptr], [16 x ptr], i32, [16 x ptr], i32, i32, [2 x ptr], [2 x ptr], [2 x ptr], [2 x ptr], [2 x ptr], i32, i32, i32, [255 x i8], i8, i8, i8, i32, i32, i32, i32, i32, i32, i32, i32, i32, i32, i32, [4 x %struct.CRCscan], i32, i32 }
%struct.ProbedPage = type { i32, i32, i32 }
%struct.stb_vorbis_alloc = type { ptr, i32 }
%struct.Mode = type { i8, i8, i16, i16 }
%struct.CRCscan = type { i32, i32, i32, i32, i32 }

; Function Attrs: nounwind uwtable
define i32 @stb_vorbis_get_samples_float(ptr noundef %0, i32 noundef %1, ptr noundef %2, i32 noundef %3) #0 {
  %5 = alloca ptr, align 8
  %6 = alloca i32, align 4
  %7 = alloca ptr, align 8
  %8 = alloca i32, align 4
  %9 = alloca ptr, align 8
  %10 = alloca i32, align 4
  %11 = alloca i32, align 4
  %12 = alloca i32, align 4
  %13 = alloca i32, align 4
  %14 = alloca i32, align 4
  store ptr %0, ptr %5, align 8, !tbaa !3
  store i32 %1, ptr %6, align 4, !tbaa !8
  store ptr %2, ptr %7, align 8, !tbaa !108
  store i32 %3, ptr %8, align 4, !tbaa !8
  call void @llvm.lifetime.start.p0(i64 8, ptr %9) #11
  call void @llvm.lifetime.start.p0(i64 4, ptr %10) #11
  store i32 0, ptr %10, align 4, !tbaa !8
  call void @llvm.lifetime.start.p0(i64 4, ptr %11) #11
  %15 = load ptr, ptr %5, align 8, !tbaa !3
  %16 = getelementptr inbounds nuw %struct.stb_vorbis, ptr %15, i32 0, i32 1
  %17 = load i32, ptr %16, align 4, !tbaa !122
  store i32 %17, ptr %11, align 4, !tbaa !8
  %18 = load i32, ptr %11, align 4, !tbaa !8
  %19 = load i32, ptr %6, align 4, !tbaa !8
  %20 = icmp sgt i32 %18, %19
  br i1 %20, label %21, label %23

21:                                               ; preds = %4
  %22 = load i32, ptr %6, align 4, !tbaa !8
  store i32 %22, ptr %11, align 4, !tbaa !8
  br label %23

23:                                               ; preds = %21, %4
  br label %24

24:                                               ; preds = %121, %23
  %25 = load i32, ptr %10, align 4, !tbaa !8
  %26 = load i32, ptr %8, align 4, !tbaa !8
  %27 = icmp slt i32 %25, %26
  br i1 %27, label %28, label %122

28:                                               ; preds = %24
  call void @llvm.lifetime.start.p0(i64 4, ptr %12) #11
  call void @llvm.lifetime.start.p0(i64 4, ptr %13) #11
  %29 = load ptr, ptr %5, align 8, !tbaa !3
  %30 = getelementptr inbounds nuw %struct.stb_vorbis, ptr %29, i32 0, i32 72
  %31 = load i32, ptr %30, align 8, !tbaa !167
  %32 = load ptr, ptr %5, align 8, !tbaa !3
  %33 = getelementptr inbounds nuw %struct.stb_vorbis, ptr %32, i32 0, i32 71
  %34 = load i32, ptr %33, align 4, !tbaa !168
  %35 = sub nsw i32 %31, %34
  store i32 %35, ptr %13, align 4, !tbaa !8
  %36 = load i32, ptr %10, align 4, !tbaa !8
  %37 = load i32, ptr %13, align 4, !tbaa !8
  %38 = add nsw i32 %36, %37
  %39 = load i32, ptr %8, align 4, !tbaa !8
  %40 = icmp sge i32 %38, %39
  br i1 %40, label %41, label %45

41:                                               ; preds = %28
  %42 = load i32, ptr %8, align 4, !tbaa !8
  %43 = load i32, ptr %10, align 4, !tbaa !8
  %44 = sub nsw i32 %42, %43
  store i32 %44, ptr %13, align 4, !tbaa !8
  br label %45

45:                                               ; preds = %41, %28
  %46 = load i32, ptr %13, align 4, !tbaa !8
  %47 = icmp ne i32 %46, 0
  br i1 %47, label %48, label %100

48:                                               ; preds = %45
  store i32 0, ptr %12, align 4, !tbaa !8
  br label %49

49:                                               ; preds = %76, %48
  %50 = load i32, ptr %12, align 4, !tbaa !8
  %51 = load i32, ptr %11, align 4, !tbaa !8
  %52 = icmp slt i32 %50, %51
  br i1 %52, label %53, label %79

53:                                               ; preds = %49
  %54 = load ptr, ptr %7, align 8, !tbaa !108
  %55 = load i32, ptr %12, align 4, !tbaa !8
  %56 = sext i32 %55 to i64
  %57 = getelementptr inbounds ptr, ptr %54, i64 %56
  %58 = load ptr, ptr %57, align 8, !tbaa !58
  %59 = load i32, ptr %10, align 4, !tbaa !8
  %60 = sext i32 %59 to i64
  %61 = getelementptr inbounds float, ptr %58, i64 %60
  %62 = load ptr, ptr %5, align 8, !tbaa !3
  %63 = getelementptr inbounds nuw %struct.stb_vorbis, ptr %62, i32 0, i32 40
  %64 = load i32, ptr %12, align 4, !tbaa !8
  %65 = sext i32 %64 to i64
  %66 = getelementptr inbounds [16 x ptr], ptr %63, i64 0, i64 %65
  %67 = load ptr, ptr %66, align 8, !tbaa !58
  %68 = load ptr, ptr %5, align 8, !tbaa !3
  %69 = getelementptr inbounds nuw %struct.stb_vorbis, ptr %68, i32 0, i32 71
  %70 = load i32, ptr %69, align 4, !tbaa !168
  %71 = sext i32 %70 to i64
  %72 = getelementptr inbounds float, ptr %67, i64 %71
  %73 = load i32, ptr %13, align 4, !tbaa !8
  %74 = sext i32 %73 to i64
  %75 = mul i64 4, %74
  call void @llvm.memcpy.p0.p0.i64(ptr align 4 %61, ptr align 4 %72, i64 %75, i1 false)
  br label %76

76:                                               ; preds = %53
  %77 = load i32, ptr %12, align 4, !tbaa !8
  %78 = add nsw i32 %77, 1
  store i32 %78, ptr %12, align 4, !tbaa !8
  br label %49, !llvm.loop !364

79:                                               ; preds = %49
  br label %80

80:                                               ; preds = %96, %79
  %81 = load i32, ptr %12, align 4, !tbaa !8
  %82 = load i32, ptr %6, align 4, !tbaa !8
  %83 = icmp slt i32 %81, %82
  br i1 %83, label %84, label %99

84:                                               ; preds = %80
  %85 = load ptr, ptr %7, align 8, !tbaa !108
  %86 = load i32, ptr %12, align 4, !tbaa !8
  %87 = sext i32 %86 to i64
  %88 = getelementptr inbounds ptr, ptr %85, i64 %87
  %89 = load ptr, ptr %88, align 8, !tbaa !58
  %90 = load i32, ptr %10, align 4, !tbaa !8
  %91 = sext i32 %90 to i64
  %92 = getelementptr inbounds float, ptr %89, i64 %91
  %93 = load i32, ptr %13, align 4, !tbaa !8
  %94 = sext i32 %93 to i64
  %95 = mul i64 4, %94
  call void @llvm.memset.p0.i64(ptr align 4 %92, i8 0, i64 %95, i1 false)
  br label %96

96:                                               ; preds = %84
  %97 = load i32, ptr %12, align 4, !tbaa !8
  %98 = add nsw i32 %97, 1
  store i32 %98, ptr %12, align 4, !tbaa !8
  br label %80, !llvm.loop !365

99:                                               ; preds = %80
  br label %100

100:                                              ; preds = %99, %45
  %101 = load i32, ptr %13, align 4, !tbaa !8
  %102 = load i32, ptr %10, align 4, !tbaa !8
  %103 = add nsw i32 %102, %101
  store i32 %103, ptr %10, align 4, !tbaa !8
  %104 = load i32, ptr %13, align 4, !tbaa !8
  %105 = load ptr, ptr %5, align 8, !tbaa !3
  %106 = getelementptr inbounds nuw %struct.stb_vorbis, ptr %105, i32 0, i32 71
  %107 = load i32, ptr %106, align 4, !tbaa !168
  %108 = add nsw i32 %107, %104
  store i32 %108, ptr %106, align 4, !tbaa !168
  %109 = load i32, ptr %10, align 4, !tbaa !8
  %110 = load i32, ptr %8, align 4, !tbaa !8
  %111 = icmp eq i32 %109, %110
  br i1 %111, label %112, label %113

112:                                              ; preds = %100
  store i32 3, ptr %14, align 4
  br label %119

113:                                              ; preds = %100
  %114 = load ptr, ptr %5, align 8, !tbaa !3
  %115 = call i32 @stb_vorbis_get_frame_float(ptr noundef %114, ptr noundef null, ptr noundef %9)
  %116 = icmp ne i32 %115, 0
  br i1 %116, label %118, label %117

117:                                              ; preds = %113
  store i32 3, ptr %14, align 4
  br label %119

118:                                              ; preds = %113
  store i32 0, ptr %14, align 4
  br label %119

119:                                              ; preds = %118, %117, %112
  call void @llvm.lifetime.end.p0(i64 4, ptr %13) #11
  call void @llvm.lifetime.end.p0(i64 4, ptr %12) #11
  %120 = load i32, ptr %14, align 4
  switch i32 %120, label %124 [
    i32 0, label %121
    i32 3, label %122
  ]

121:                                              ; preds = %119
  br label %24, !llvm.loop !366

122:                                              ; preds = %119, %24
  %123 = load i32, ptr %10, align 4, !tbaa !8
  store i32 1, ptr %14, align 4
  call void @llvm.lifetime.end.p0(i64 4, ptr %11) #11
  call void @llvm.lifetime.end.p0(i64 4, ptr %10) #11
  call void @llvm.lifetime.end.p0(i64 8, ptr %9) #11
  ret i32 %123

124:                                              ; preds = %119
  unreachable
}