; Function Attrs: nofree nounwind uwtable
define i32 @stb_vorbis_get_samples_float(ptr noundef %0, i32 noundef %1, ptr noundef readonly captures(none) %2, i32 noundef %3) local_unnamed_addr #17 {
  %5 = alloca ptr, align 8
  call void @llvm.lifetime.start.p0(i64 8, ptr nonnull %5) #35
  %6 = getelementptr inbounds nuw i8, ptr %0, i64 4
  %7 = load i32, ptr %6, align 4, !tbaa !110
  %.fr = freeze i32 %7
  %spec.select = tail call i32 @llvm.smin.i32(i32 %.fr, i32 %1)
  %8 = getelementptr inbounds nuw i8, ptr %0, i64 1896
  %9 = getelementptr inbounds nuw i8, ptr %0, i64 1892
  %10 = icmp sgt i32 %spec.select, 0
  %11 = getelementptr inbounds nuw i8, ptr %0, i64 888
  br i1 %10, label %.split.us.preheader, label %.split

.split.us.preheader:                              ; preds = %4
  %wide.trip.count76 = zext nneg i32 %spec.select to i64
  %12 = icmp slt i32 %.fr, %1
  br label %.split.us

.split.us:                                        ; preds = %.split.us.preheader, %38
  %.042.us = phi i32 [ %34, %38 ], [ 0, %.split.us.preheader ]
  %13 = icmp slt i32 %.042.us, %3
  br i1 %13, label %14, label %.thread

14:                                               ; preds = %.split.us
  %15 = load i32, ptr %8, align 8, !tbaa !154
  %16 = load i32, ptr %9, align 4, !tbaa !155
  %17 = sub nsw i32 %15, %16
  %18 = add nsw i32 %17, %.042.us
  %.not.us = icmp slt i32 %18, %3
  %19 = sub nsw i32 %3, %.042.us
  %spec.select49.us = select i1 %.not.us, i32 %17, i32 %19
  %.not47.us = icmp eq i32 %spec.select49.us, 0
  br i1 %.not47.us, label %.loopexit.us, label %.preheader52.us

.lr.ph55.us:                                      ; preds = %..preheader_crit_edge.us, %.lr.ph55.us
  %indvars.iv80 = phi i64 [ %indvars.iv.next81, %.lr.ph55.us ], [ %indvars.iv78, %..preheader_crit_edge.us ]
  %20 = getelementptr inbounds nuw ptr, ptr %2, i64 %indvars.iv80
  %21 = load ptr, ptr %20, align 8, !tbaa !53
  %22 = getelementptr inbounds float, ptr %21, i64 %40
  call void @llvm.memset.p0.i64(ptr align 4 %22, i8 0, i64 %42, i1 false)
  %indvars.iv.next81 = add nuw nsw i64 %indvars.iv80, 1
  %23 = trunc nuw i64 %indvars.iv.next81 to i32
  %24 = icmp sgt i32 %1, %23
  br i1 %24, label %.lr.ph55.us, label %.loopexit.us, !llvm.loop !344

25:                                               ; preds = %.preheader52.us, %25
  %indvars.iv78 = phi i64 [ 1, %.preheader52.us ], [ %indvars.iv.next79, %25 ]
  %indvars.iv73 = phi i64 [ 0, %.preheader52.us ], [ %indvars.iv.next74, %25 ]
  %26 = getelementptr inbounds nuw ptr, ptr %2, i64 %indvars.iv73
  %27 = load ptr, ptr %26, align 8, !tbaa !53
  %28 = getelementptr inbounds float, ptr %27, i64 %40
  %29 = getelementptr inbounds nuw [16 x ptr], ptr %11, i64 0, i64 %indvars.iv73
  %30 = load ptr, ptr %29, align 8, !tbaa !53
  %31 = load i32, ptr %9, align 4, !tbaa !155
  %32 = sext i32 %31 to i64
  %33 = getelementptr inbounds float, ptr %30, i64 %32
  call void @llvm.memcpy.p0.p0.i64(ptr align 4 %28, ptr align 4 %33, i64 %42, i1 false)
  %indvars.iv.next74 = add nuw nsw i64 %indvars.iv73, 1
  %exitcond77.not = icmp eq i64 %indvars.iv.next74, %wide.trip.count76
  %indvars.iv.next79 = add nuw nsw i64 %indvars.iv78, 1
  br i1 %exitcond77.not, label %..preheader_crit_edge.us, label %25, !llvm.loop !345

.loopexit.us:                                     ; preds = %.lr.ph55.us, %..preheader_crit_edge.us, %14
  %34 = add nsw i32 %spec.select49.us, %.042.us
  %35 = load i32, ptr %9, align 4, !tbaa !155
  %36 = add nsw i32 %35, %spec.select49.us
  store i32 %36, ptr %9, align 4, !tbaa !155
  %37 = icmp eq i32 %34, %3
  br i1 %37, label %.thread, label %38

38:                                               ; preds = %.loopexit.us
  %39 = call i32 @stb_vorbis_get_frame_float(ptr noundef nonnull %0, ptr noundef null, ptr noundef nonnull %5)
  %.not48.us = icmp eq i32 %39, 0
  br i1 %.not48.us, label %.thread, label %.split.us

.preheader52.us:                                  ; preds = %14
  %40 = sext i32 %.042.us to i64
  %41 = sext i32 %spec.select49.us to i64
  %42 = shl nsw i64 %41, 2
  br label %25

..preheader_crit_edge.us:                         ; preds = %25
  br i1 %12, label %.lr.ph55.us, label %.loopexit.us

.split:                                           ; preds = %4
  %43 = icmp sgt i32 %1, 0
  br i1 %43, label %.split.split.us.preheader, label %.split.split

.split.split.us.preheader:                        ; preds = %.split
  %wide.trip.count = zext nneg i32 %1 to i64
  br label %.split.split.us

.split.split.us:                                  ; preds = %.split.split.us.preheader, %59
  %.042.us56 = phi i32 [ %56, %59 ], [ 0, %.split.split.us.preheader ]
  %44 = icmp slt i32 %.042.us56, %3
  br i1 %44, label %45, label %.thread

45:                                               ; preds = %.split.split.us
  %46 = load i32, ptr %8, align 8, !tbaa !154
  %47 = load i32, ptr %9, align 4, !tbaa !155
  %48 = sub nsw i32 %46, %47
  %49 = add nsw i32 %48, %.042.us56
  %.not.us57 = icmp slt i32 %49, %3
  %50 = sub nsw i32 %3, %.042.us56
  %spec.select49.us58 = select i1 %.not.us57, i32 %48, i32 %50
  %.not47.us59 = icmp eq i32 %spec.select49.us58, 0
  br i1 %.not47.us59, label %..loopexit_crit_edge.us65, label %.preheader52.us63

51:                                               ; preds = %.preheader52.us63, %51
  %indvars.iv = phi i64 [ 0, %.preheader52.us63 ], [ %indvars.iv.next, %51 ]
  %52 = getelementptr inbounds nuw ptr, ptr %2, i64 %indvars.iv
  %53 = load ptr, ptr %52, align 8, !tbaa !53
  %54 = getelementptr inbounds float, ptr %53, i64 %61
  call void @llvm.memset.p0.i64(ptr align 4 %54, i8 0, i64 %63, i1 false)
  %indvars.iv.next = add nuw nsw i64 %indvars.iv, 1
  %exitcond.not = icmp eq i64 %indvars.iv.next, %wide.trip.count
  br i1 %exitcond.not, label %..loopexit_crit_edge.us65.loopexit, label %51, !llvm.loop !344

..loopexit_crit_edge.us65.loopexit:               ; preds = %51
  %.pre = load i32, ptr %9, align 4, !tbaa !155
  br label %..loopexit_crit_edge.us65

..loopexit_crit_edge.us65:                        ; preds = %..loopexit_crit_edge.us65.loopexit, %45
  %55 = phi i32 [ %.pre, %..loopexit_crit_edge.us65.loopexit ], [ %47, %45 ]
  %56 = add nsw i32 %spec.select49.us58, %.042.us56
  %57 = add nsw i32 %55, %spec.select49.us58
  store i32 %57, ptr %9, align 4, !tbaa !155
  %58 = icmp eq i32 %56, %3
  br i1 %58, label %.thread, label %59

59:                                               ; preds = %..loopexit_crit_edge.us65
  %60 = call i32 @stb_vorbis_get_frame_float(ptr noundef nonnull %0, ptr noundef null, ptr noundef nonnull %5)
  %.not48.us61 = icmp eq i32 %60, 0
  br i1 %.not48.us61, label %.thread, label %.split.split.us

.preheader52.us63:                                ; preds = %45
  %61 = sext i32 %.042.us56 to i64
  %62 = sext i32 %spec.select49.us58 to i64
  %63 = shl nsw i64 %62, 2
  br label %51

.split.split:                                     ; preds = %.split, %73
  %.042 = phi i32 [ %70, %73 ], [ 0, %.split ]
  %64 = icmp slt i32 %.042, %3
  br i1 %64, label %.preheader52, label %.thread

.preheader52:                                     ; preds = %.split.split
  %65 = load i32, ptr %8, align 8, !tbaa !154
  %66 = load i32, ptr %9, align 4, !tbaa !155
  %67 = sub nsw i32 %65, %66
  %68 = add nsw i32 %67, %.042
  %.not = icmp slt i32 %68, %3
  %69 = sub nsw i32 %3, %.042
  %spec.select49 = select i1 %.not, i32 %67, i32 %69
  %70 = add nsw i32 %spec.select49, %.042
  %71 = add nsw i32 %66, %spec.select49
  store i32 %71, ptr %9, align 4, !tbaa !155
  %72 = icmp eq i32 %70, %3
  br i1 %72, label %.thread, label %73

73:                                               ; preds = %.preheader52
  %74 = call i32 @stb_vorbis_get_frame_float(ptr noundef nonnull %0, ptr noundef null, ptr noundef nonnull %5)
  %.not48 = icmp eq i32 %74, 0
  br i1 %.not48, label %.thread, label %.split.split

.thread:                                          ; preds = %73, %.preheader52, %.split.split, %59, %..loopexit_crit_edge.us65, %.split.split.us, %.split.us, %.loopexit.us, %38
  %.us-phi = phi i32 [ %.042.us, %.split.us ], [ %3, %.loopexit.us ], [ %34, %38 ], [ %.042.us56, %.split.split.us ], [ %3, %..loopexit_crit_edge.us65 ], [ %56, %59 ], [ %.042, %.split.split ], [ %3, %.preheader52 ], [ %70, %73 ]
  call void @llvm.lifetime.end.p0(i64 8, ptr nonnull %5) #35
  ret i32 %.us-phi
}